target datalayout = "e-m:e-p270:32:32-p271:32:32-p272:64:64-i64:64-i128:128-f80:128-n8:16:32:64-S128"
target triple = "x86_64-unknown-linux-gnu"

%"class.std::vector.37" = type { %"struct.std::_Vector_base.38" }
%"struct.std::_Vector_base.38" = type { %"struct.std::_Vector_base<QuantLib::DefaultProbKey, std::allocator<QuantLib::DefaultProbKey>>::_Vector_impl" }
%"struct.std::_Vector_base<QuantLib::DefaultProbKey, std::allocator<QuantLib::DefaultProbKey>>::_Vector_impl" = type { %"struct.std::_Vector_base<QuantLib::DefaultProbKey, std::allocator<QuantLib::DefaultProbKey>>::_Vector_impl_data" }
%"struct.std::_Vector_base<QuantLib::DefaultProbKey, std::allocator<QuantLib::DefaultProbKey>>::_Vector_impl_data" = type { ptr, ptr, ptr }

; Function Attrs: mustprogress nounwind uwtable
define linkonce_odr void @_ZNSt15__new_allocatorIN8QuantLib14DefaultProbKeyEE10deallocateEPS1_m(ptr noundef nonnull align 1 dereferenceable(1) %this, ptr noundef %__p, i64 noundef %__n) #1 comdat align 2 {
entry:
  %this.addr = alloca ptr, align 8
  %__p.addr = alloca ptr, align 8
  %__n.addr = alloca i64, align 8
  store ptr %this, ptr %this.addr, align 8, !tbaa !3
  store ptr %__p, ptr %__p.addr, align 8, !tbaa !3
  store i64 %__n, ptr %__n.addr, align 8, !tbaa !55
  %0 = load ptr, ptr %__p.addr, align 8, !tbaa !3
  %1 = load i64, ptr %__n.addr, align 8, !tbaa !55
  %mul = mul i64 %1, 48
  call void @_ZdlPvm(ptr noundef %0, i64 noundef %mul) #25
  ret void
}

; Function Attrs: mustprogress uwtable
define linkonce_odr void @_ZNSt16allocator_traitsISaIN8QuantLib14DefaultProbKeyEEE10deallocateERS2_PS1_m(ptr noundef nonnull align 1 dereferenceable(1) %__a, ptr noundef %__p, i64 noundef %__n) #2 comdat align 2 {
entry:
  %__a.addr = alloca ptr, align 8
  %__p.addr = alloca ptr, align 8
  %__n.addr = alloca i64, align 8
  store ptr %__a, ptr %__a.addr, align 8, !tbaa !3
  store ptr %__p, ptr %__p.addr, align 8, !tbaa !3
  store i64 %__n, ptr %__n.addr, align 8, !tbaa !55
  %0 = load ptr, ptr %__a.addr, align 8, !tbaa !3
  %1 = load ptr, ptr %__p.addr, align 8, !tbaa !3
  %2 = load i64, ptr %__n.addr, align 8, !tbaa !55
  call void @_ZNSt15__new_allocatorIN8QuantLib14DefaultProbKeyEE10deallocateEPS1_m(ptr noundef nonnull align 1 dereferenceable(1) %0, ptr noundef %1, i64 noundef %2)
  ret void
}

; Function Attrs: mustprogress nounwind uwtable
define linkonce_odr void @_ZNSt15__new_allocatorIN8QuantLib14DefaultProbKeyEED2Ev(ptr noundef nonnull align 1 dereferenceable(1) %this) unnamed_addr #1 comdat align 2 {
entry:
  %this.addr = alloca ptr, align 8
  store ptr %this, ptr %this.addr, align 8, !tbaa !3
  ret void
}

; Function Attrs: mustprogress uwtable
define linkonce_odr void @_ZNSt12_Vector_baseIN8QuantLib14DefaultProbKeyESaIS1_EE13_M_deallocateEPS1_m(ptr noundef nonnull align 8 dereferenceable(24) %this, ptr noundef %__p, i64 noundef %__n) #2 comdat align 2 {
entry:
  %this.addr = alloca ptr, align 8
  %__p.addr = alloca ptr, align 8
  %__n.addr = alloca i64, align 8
  store ptr %this, ptr %this.addr, align 8, !tbaa !3
  store ptr %__p, ptr %__p.addr, align 8, !tbaa !3
  store i64 %__n, ptr %__n.addr, align 8, !tbaa !55
  %this1 = load ptr, ptr %this.addr, align 8
  %0 = load ptr, ptr %__p.addr, align 8, !tbaa !3
  %tobool = icmp ne ptr %0, null
  br i1 %tobool, label %if.then, label %if.end

if.then:                                          ; preds = %entry
  %_M_impl = getelementptr inbounds nuw %"struct.std::_Vector_base.38", ptr %this1, i32 0, i32 0
  %1 = load ptr, ptr %__p.addr, align 8, !tbaa !3
  %2 = load i64, ptr %__n.addr, align 8, !tbaa !55
  call void @_ZNSt16allocator_traitsISaIN8QuantLib14DefaultProbKeyEEE10deallocateERS2_PS1_m(ptr noundef nonnull align 1 dereferenceable(1) %_M_impl, ptr noundef %1, i64 noundef %2)
  br label %if.end

if.end:                                           ; preds = %if.then, %entry
  ret void
}

; Function Attrs: inlinehint mustprogress uwtable
define linkonce_odr void @_ZSt8_DestroyIPN8QuantLib14DefaultProbKeyEEvT_S3_(ptr noundef %__first, ptr noundef %__last) #4 comdat {
entry:
  %__first.addr = alloca ptr, align 8
  %__last.addr = alloca ptr, align 8
  store ptr %__first, ptr %__first.addr, align 8, !tbaa !3
  store ptr %__last, ptr %__last.addr, align 8, !tbaa !3
  %0 = load ptr, ptr %__first.addr, align 8, !tbaa !3
  %1 = load ptr, ptr %__last.addr, align 8, !tbaa !3
  call void @_ZNSt12_Destroy_auxILb0EE9__destroyIPN8QuantLib14DefaultProbKeyEEEvT_S5_(ptr noundef %0, ptr noundef %1)
  ret void
}

; Function Attrs: mustprogress nounwind uwtable
define linkonce_odr void @_ZNSt12_Vector_baseIN8QuantLib14DefaultProbKeyESaIS1_EED2Ev(ptr noundef nonnull align 8 dereferenceable(24) %this) unnamed_addr #1 comdat align 2 personality ptr @__gxx_personality_v0 {
entry:
  %this.addr = alloca ptr, align 8
  store ptr %this, ptr %this.addr, align 8, !tbaa !3
  %this1 = load ptr, ptr %this.addr, align 8
  %_M_impl = getelementptr inbounds nuw %"struct.std::_Vector_base.38", ptr %this1, i32 0, i32 0
  %_M_start = getelementptr inbounds nuw %"struct.std::_Vector_base<QuantLib::DefaultProbKey, std::allocator<QuantLib::DefaultProbKey>>::_Vector_impl_data", ptr %_M_impl, i32 0, i32 0
  %0 = load ptr, ptr %_M_start, align 8, !tbaa !69
  %_M_impl2 = getelementptr inbounds nuw %"struct.std::_Vector_base.38", ptr %this1, i32 0, i32 0
  %_M_end_of_storage = getelementptr inbounds nuw %"struct.std::_Vector_base<QuantLib::DefaultProbKey, std::allocator<QuantLib::DefaultProbKey>>::_Vector_impl_data", ptr %_M_impl2, i32 0, i32 2
  %1 = load ptr, ptr %_M_end_of_storage, align 8, !tbaa !107
  %_M_impl3 = getelementptr inbounds nuw %"struct.std::_Vector_base.38", ptr %this1, i32 0, i32 0
  %_M_start4 = getelementptr inbounds nuw %"struct.std::_Vector_base<QuantLib::DefaultProbKey, std::allocator<QuantLib::DefaultProbKey>>::_Vector_impl_data", ptr %_M_impl3, i32 0, i32 0
  %2 = load ptr, ptr %_M_start4, align 8, !tbaa !69
  %sub.ptr.lhs.cast = ptrtoint ptr %1 to i64
  %sub.ptr.rhs.cast = ptrtoint ptr %2 to i64
  %sub.ptr.sub = sub i64 %sub.ptr.lhs.cast, %sub.ptr.rhs.cast
  %sub.ptr.div = sdiv exact i64 %sub.ptr.sub, 48
  invoke void @_ZNSt12_Vector_baseIN8QuantLib14DefaultProbKeyESaIS1_EE13_M_deallocateEPS1_m(ptr noundef nonnull align 8 dereferenceable(24) %this1, ptr noundef %0, i64 noundef %sub.ptr.div)
          to label %invoke.cont unwind label %terminate.lpad

invoke.cont:                                      ; preds = %entry
  %_M_impl5 = getelementptr inbounds nuw %"struct.std::_Vector_base.38", ptr %this1, i32 0, i32 0
  call void @_ZNSt15__new_allocatorIN8QuantLib14DefaultProbKeyEED2Ev(ptr noundef nonnull align 8 dereferenceable(24) %_M_impl5) #14
  ret void

terminate.lpad:                                   ; preds = %entry
  %3 = landingpad { ptr, i32 }
          catch ptr null
  %4 = extractvalue { ptr, i32 } %3, 0
  call void @__clang_call_terminate(ptr %4) #22
  unreachable
}

; Function Attrs: inlinehint mustprogress uwtable
define linkonce_odr void @_ZSt8_DestroyIPN8QuantLib14DefaultProbKeyES1_EvT_S3_RSaIT0_E(ptr noundef %__first, ptr noundef %__last, ptr noundef nonnull align 1 dereferenceable(1) %0) #4 comdat {
entry:
  %__first.addr = alloca ptr, align 8
  %__last.addr = alloca ptr, align 8
  %.addr = alloca ptr, align 8
  store ptr %__first, ptr %__first.addr, align 8, !tbaa !3
  store ptr %__last, ptr %__last.addr, align 8, !tbaa !3
  store ptr %0, ptr %.addr, align 8, !tbaa !3
  %1 = load ptr, ptr %__first.addr, align 8, !tbaa !3
  %2 = load ptr, ptr %__last.addr, align 8, !tbaa !3
  call void @_ZSt8_DestroyIPN8QuantLib14DefaultProbKeyEEvT_S3_(ptr noundef %1, ptr noundef %2)
  ret void
}

; Function Attrs: mustprogress nounwind uwtable
define linkonce_odr noundef nonnull align 1 dereferenceable(1) ptr @_ZNSt12_Vector_baseIN8QuantLib14DefaultProbKeyESaIS1_EE19_M_get_Tp_allocatorEv(ptr noundef nonnull align 8 dereferenceable(24) %this) #1 comdat align 2 {
entry:
  %this.addr = alloca ptr, align 8
  store ptr %this, ptr %this.addr, align 8, !tbaa !3
  %this1 = load ptr, ptr %this.addr, align 8
  %_M_impl = getelementptr inbounds nuw %"struct.std::_Vector_base.38", ptr %this1, i32 0, i32 0
  ret ptr %_M_impl
}

; Function Attrs: mustprogress nounwind uwtable
define linkonce_odr void @_ZNSt6vectorIN8QuantLib14DefaultProbKeyESaIS1_EED2Ev(ptr noundef nonnull align 8 dereferenceable(24) %this) unnamed_addr #1 comdat align 2 personality ptr @__gxx_personality_v0 {
entry:
  %this.addr = alloca ptr, align 8
  store ptr %this, ptr %this.addr, align 8, !tbaa !3
  %this1 = load ptr, ptr %this.addr, align 8
  %_M_impl = getelementptr inbounds nuw %"struct.std::_Vector_base.38", ptr %this1, i32 0, i32 0
  %_M_start = getelementptr inbounds nuw %"struct.std::_Vector_base<QuantLib::DefaultProbKey, std::allocator<QuantLib::DefaultProbKey>>::_Vector_impl_data", ptr %_M_impl, i32 0, i32 0
  %0 = load ptr, ptr %_M_start, align 8, !tbaa !69
  %_M_impl2 = getelementptr inbounds nuw %"struct.std::_Vector_base.38", ptr %this1, i32 0, i32 0
  %_M_finish = getelementptr inbounds nuw %"struct.std::_Vector_base<QuantLib::DefaultProbKey, std::allocator<QuantLib::DefaultProbKey>>::_Vector_impl_data", ptr %_M_impl2, i32 0, i32 1
  %1 = load ptr, ptr %_M_finish, align 8, !tbaa !70
  %call = call noundef nonnull align 1 dereferenceable(1) ptr @_ZNSt12_Vector_baseIN8QuantLib14DefaultProbKeyESaIS1_EE19_M_get_Tp_allocatorEv(ptr noundef nonnull align 8 dereferenceable(24) %this1) #14
  invoke void @_ZSt8_DestroyIPN8QuantLib14DefaultProbKeyES1_EvT_S3_RSaIT0_E(ptr noundef %0, ptr noundef %1, ptr noundef nonnull align 1 dereferenceable(1) %call)
          to label %invoke.cont unwind label %terminate.lpad

invoke.cont:                                      ; preds = %entry
  call void @_ZNSt12_Vector_baseIN8QuantLib14DefaultProbKeyESaIS1_EED2Ev(ptr noundef nonnull align 8 dereferenceable(24) %this1) #14
  ret void

terminate.lpad:                                   ; preds = %entry
  %2 = landingpad { ptr, i32 }
          catch ptr null
  %3 = extractvalue { ptr, i32 } %2, 0
  call void @__clang_call_terminate(ptr %3) #22
  unreachable
}

; Function Attrs: mustprogress nounwind uwtable
define linkonce_odr noundef i64 @_ZNKSt6vectorIN8QuantLib14DefaultProbKeyESaIS1_EE4sizeEv(ptr noundef nonnull align 8 dereferenceable(24) %this) #1 comdat align 2 {
entry:
  %this.addr = alloca ptr, align 8
  store ptr %this, ptr %this.addr, align 8, !tbaa !3
  %this1 = load ptr, ptr %this.addr, align 8
  %_M_impl = getelementptr inbounds nuw %"struct.std::_Vector_base.38", ptr %this1, i32 0, i32 0
  %_M_finish = getelementptr inbounds nuw %"struct.std::_Vector_base<QuantLib::DefaultProbKey, std::allocator<QuantLib::DefaultProbKey>>::_Vector_impl_data", ptr %_M_impl, i32 0, i32 1
  %0 = load ptr, ptr %_M_finish, align 8, !tbaa !70
  %_M_impl2 = getelementptr inbounds nuw %"struct.std::_Vector_base.38", ptr %this1, i32 0, i32 0
  %_M_start = getelementptr inbounds nuw %"struct.std::_Vector_base<QuantLib::DefaultProbKey, std::allocator<QuantLib::DefaultProbKey>>::_Vector_impl_data", ptr %_M_impl2, i32 0, i32 0
  %1 = load ptr, ptr %_M_start, align 8, !tbaa !69
  %sub.ptr.lhs.cast = ptrtoint ptr %0 to i64
  %sub.ptr.rhs.cast = ptrtoint ptr %1 to i64
  %sub.ptr.sub = sub i64 %sub.ptr.lhs.cast, %sub.ptr.rhs.cast
  %sub.ptr.div = sdiv exact i64 %sub.ptr.sub, 48
  ret i64 %sub.ptr.div
}

; Function Attrs: mustprogress uwtable
define noundef i64 @_ZNK8QuantLib6Basket13remainingSizeERKNS_4DateE(ptr noundef nonnull align 8 dereferenceable(272) %this, ptr noundef nonnull align 8 dereferenceable(8) %d) #2 align 2 {
entry:
  %this.addr = alloca ptr, align 8
  %d.addr = alloca ptr, align 8
  %ref.tmp = alloca %"class.std::vector.37", align 8
  store ptr %this, ptr %this.addr, align 8, !tbaa !3
  store ptr %d, ptr %d.addr, align 8, !tbaa !3
  %this1 = load ptr, ptr %this.addr, align 8
  call void @llvm.lifetime.start.p0(i64 24, ptr %ref.tmp) #14
  %0 = load ptr, ptr %d.addr, align 8, !tbaa !3
  call void @_ZNK8QuantLib6Basket20remainingDefaultKeysERKNS_4DateE(ptr dead_on_unwind writable sret(%"class.std::vector.37") align 8 %ref.tmp, ptr noundef nonnull align 8 dereferenceable(272) %this1, ptr noundef nonnull align 8 dereferenceable(8) %0)
  %call = call noundef i64 @_ZNKSt6vectorIN8QuantLib14DefaultProbKeyESaIS1_EE4sizeEv(ptr noundef nonnull align 8 dereferenceable(24) %ref.tmp) #14
  call void @_ZNSt6vectorIN8QuantLib14DefaultProbKeyESaIS1_EED2Ev(ptr noundef nonnull align 8 dereferenceable(24) %ref.tmp) #14
  call void @llvm.lifetime.end.p0(i64 24, ptr %ref.tmp) #14
  ret i64 %call
}