; Function Attrs: mustprogress uwtable
define noundef range(i64 -192153584101141162, 192153584101141163) i64 @_ZNK8QuantLib6Basket13remainingSizeERKNS_4DateE(ptr noundef nonnull align 8 dereferenceable(272) %this, ptr noundef nonnull align 8 dereferenceable(8) %d) local_unnamed_addr #8 align 2 personality ptr @__gxx_personality_v0 {
entry:
  %ref.tmp = alloca %"class.std::vector.37", align 8
  call void @llvm.lifetime.start.p0(i64 24, ptr nonnull %ref.tmp) #30
  call void @_ZNK8QuantLib6Basket20remainingDefaultKeysERKNS_4DateE(ptr dead_on_unwind nonnull writable sret(%"class.std::vector.37") align 8 %ref.tmp, ptr noundef nonnull align 8 dereferenceable(272) %this, ptr noundef nonnull align 8 dereferenceable(8) %d)
  %_M_finish.i = getelementptr inbounds nuw i8, ptr %ref.tmp, i64 8
  %0 = load ptr, ptr %_M_finish.i, align 8, !tbaa !92
  %1 = load ptr, ptr %ref.tmp, align 8, !tbaa !91
  invoke void @_ZNSt12_Destroy_auxILb0EE9__destroyIPN8QuantLib14DefaultProbKeyEEEvT_S5_(ptr noundef %1, ptr noundef %0)
          to label %invoke.cont.i unwind label %terminate.lpad.i

invoke.cont.i:                                    ; preds = %entry
  %2 = load ptr, ptr %ref.tmp, align 8, !tbaa !91
  %tobool.not.i.i.i = icmp eq ptr %2, null
  br i1 %tobool.not.i.i.i, label %_ZNSt6vectorIN8QuantLib14DefaultProbKeyESaIS1_EED2Ev.exit, label %if.then.i.i.i

if.then.i.i.i:                                    ; preds = %invoke.cont.i
  %_M_end_of_storage.i.i = getelementptr inbounds nuw i8, ptr %ref.tmp, i64 16
  %3 = load ptr, ptr %_M_end_of_storage.i.i, align 8, !tbaa !93
  %sub.ptr.lhs.cast.i.i = ptrtoint ptr %3 to i64
  %sub.ptr.rhs.cast.i.i = ptrtoint ptr %2 to i64
  %sub.ptr.sub.i.i = sub i64 %sub.ptr.lhs.cast.i.i, %sub.ptr.rhs.cast.i.i
  call void @_ZdlPvm(ptr noundef nonnull %2, i64 noundef %sub.ptr.sub.i.i) #33
  br label %_ZNSt6vectorIN8QuantLib14DefaultProbKeyESaIS1_EED2Ev.exit

terminate.lpad.i:                                 ; preds = %entry
  %4 = landingpad { ptr, i32 }
          catch ptr null
  %5 = extractvalue { ptr, i32 } %4, 0
  call void @__clang_call_terminate(ptr %5) #31
  unreachable

_ZNSt6vectorIN8QuantLib14DefaultProbKeyESaIS1_EED2Ev.exit: ; preds = %invoke.cont.i, %if.then.i.i.i
  %sub.ptr.lhs.cast.i = ptrtoint ptr %0 to i64
  %sub.ptr.rhs.cast.i = ptrtoint ptr %1 to i64
  %sub.ptr.sub.i = sub i64 %sub.ptr.lhs.cast.i, %sub.ptr.rhs.cast.i
  %sub.ptr.div.i = sdiv exact i64 %sub.ptr.sub.i, 48
  call void @llvm.lifetime.end.p0(i64 24, ptr nonnull %ref.tmp) #30
  ret i64 %sub.ptr.div.i
}